; Function Attrs: mustprogress uwtable
define internal fastcc void @_ZN6icu_77L4initER10UErrorCode(ptr noundef nonnull align 4 dereferenceable(4) %0) unnamed_addr #1 personality ptr @__gxx_personality_v0 {
  %2 = load i32, ptr %0, align 4, !tbaa !9
  %3 = icmp slt i32 %2, 1
  br i1 %3, label %4, label %_ZN6icu_7713umtx_initOnceERNS_9UInitOnceEPFvR10UErrorCodeES3_.exit

4:                                                ; preds = %1
  %5 = load atomic i32, ptr @_ZL25gJapaneseEraRulesInitOnce acquire, align 4
  %.not11.i = icmp eq i32 %5, 2
  br i1 %.not11.i, label %19, label %6

6:                                                ; preds = %4
  %7 = tail call noundef signext i8 @_ZN6icu_7720umtx_initImplPreInitERNS_9UInitOnceE(ptr noundef nonnull align 4 dereferenceable(8) @_ZL25gJapaneseEraRulesInitOnce)
  %.not12.i = icmp eq i8 %7, 0
  br i1 %.not12.i, label %19, label %8

8:                                                ; preds = %6
  %9 = tail call ptr @getenv(ptr noundef nonnull @.str.2) #10
  %.not.i.i = icmp eq ptr %9, null
  br i1 %.not.i.i, label %_ZN6icu_7716JapaneseCalendar18enableTentativeEraEv.exit.i, label %10

10:                                               ; preds = %8
  %11 = tail call i32 @uprv_stricmp_77(ptr noundef nonnull %9, ptr noundef nonnull @.str)
  %12 = icmp eq i32 %11, 0
  %spec.select.i.i = zext i1 %12 to i8
  br label %_ZN6icu_7716JapaneseCalendar18enableTentativeEraEv.exit.i

_ZN6icu_7716JapaneseCalendar18enableTentativeEraEv.exit.i: ; preds = %10, %8
  %.0.i.i = phi i8 [ 0, %8 ], [ %spec.select.i.i, %10 ]
  %13 = tail call noundef ptr @_ZN6icu_778EraRules14createInstanceEPKcaR10UErrorCode(ptr noundef nonnull @.str.1, i8 noundef signext %.0.i.i, ptr noundef nonnull align 4 dereferenceable(4) %0)
  store ptr %13, ptr @_ZL17gJapaneseEraRules, align 8, !tbaa !11
  %14 = load i32, ptr %0, align 4, !tbaa !9
  %15 = icmp slt i32 %14, 1
  br i1 %15, label %16, label %_ZN6icu_77L14initializeErasER10UErrorCode.exit

16:                                               ; preds = %_ZN6icu_7716JapaneseCalendar18enableTentativeEraEv.exit.i
  %17 = getelementptr inbounds nuw i8, ptr %13, i64 12
  %18 = load i32, ptr %17, align 4, !tbaa !14
  store i32 %18, ptr @_ZL11gCurrentEra, align 4, !tbaa !3
  br label %_ZN6icu_77L14initializeErasER10UErrorCode.exit

_ZN6icu_77L14initializeErasER10UErrorCode.exit:   ; preds = %_ZN6icu_7716JapaneseCalendar18enableTentativeEraEv.exit.i, %16
  store i32 %14, ptr getelementptr inbounds nuw (i8, ptr @_ZL25gJapaneseEraRulesInitOnce, i64 4), align 4, !tbaa !19
  tail call void @_ZN6icu_7721umtx_initImplPostInitERNS_9UInitOnceE(ptr noundef nonnull align 4 dereferenceable(8) @_ZL25gJapaneseEraRulesInitOnce)
  br label %_ZN6icu_7713umtx_initOnceERNS_9UInitOnceEPFvR10UErrorCodeES3_.exit

19:                                               ; preds = %6, %4
  %20 = load i32, ptr getelementptr inbounds nuw (i8, ptr @_ZL25gJapaneseEraRulesInitOnce, i64 4), align 4, !tbaa !19
  %21 = icmp slt i32 %20, 1
  br i1 %21, label %_ZN6icu_7713umtx_initOnceERNS_9UInitOnceEPFvR10UErrorCodeES3_.exit, label %22

22:                                               ; preds = %19
  store i32 %20, ptr %0, align 4, !tbaa !9
  br label %_ZN6icu_7713umtx_initOnceERNS_9UInitOnceEPFvR10UErrorCodeES3_.exit

_ZN6icu_7713umtx_initOnceERNS_9UInitOnceEPFvR10UErrorCodeES3_.exit: ; preds = %1, %_ZN6icu_77L14initializeErasER10UErrorCode.exit, %19, %22
  tail call void @ucln_i18n_registerCleanup_77(i32 noundef 7, ptr noundef nonnull @_ZL25japanese_calendar_cleanupv)
  ret void
}